; Function Attrs: nounwind uwtable
define internal void @prte_iof_base_write_event_construct(ptr noundef initializes((144, 146), (176, 180), (224, 236), (240, 304)) %0) #0 {
  %2 = getelementptr inbounds nuw i8, ptr %0, i64 144
  store i8 0, ptr %2, align 8, !tbaa !64
  %3 = getelementptr inbounds nuw i8, ptr %0, i64 145
  store i8 0, ptr %3, align 1, !tbaa !65
  %4 = getelementptr inbounds nuw i8, ptr %0, i64 176
  store i32 -1, ptr %4, align 8, !tbaa !51
  %5 = load i32, ptr @pmix_class_init_epoch, align 4, !tbaa !3
  %6 = load i32, ptr getelementptr inbounds nuw (i8, ptr @pmix_list_t_class, i64 32), align 8, !tbaa !15
  %.not = icmp eq i32 %5, %6
  br i1 %.not, label %8, label %7

7:                                                ; preds = %1
  tail call void @pmix_class_initialize(ptr noundef nonnull @pmix_list_t_class) #12
  br label %8

8:                                                ; preds = %7, %1
  %9 = getelementptr inbounds nuw i8, ptr %0, i64 184
  %10 = getelementptr inbounds nuw i8, ptr %0, i64 224
  store ptr @pmix_list_t_class, ptr %10, align 8, !tbaa !16
  %11 = getelementptr inbounds nuw i8, ptr %0, i64 232
  store i32 1, ptr %11, align 8, !tbaa !19
  %12 = getelementptr inbounds nuw i8, ptr %0, i64 240
  tail call void @llvm.memset.p0.i64(ptr noundef nonnull align 8 dereferenceable(64) %12, i8 0, i64 64, i1 false)
  %13 = load ptr, ptr getelementptr inbounds nuw (i8, ptr @pmix_list_t_class, i64 40), align 8, !tbaa !20
  %14 = load ptr, ptr %13, align 8, !tbaa !21
  %.not6.i = icmp eq ptr %14, null
  br i1 %.not6.i, label %pmix_obj_run_constructors.exit, label %.lr.ph.i

.lr.ph.i:                                         ; preds = %8, %.lr.ph.i
  %15 = phi ptr [ %17, %.lr.ph.i ], [ %14, %8 ]
  %.07.i = phi ptr [ %16, %.lr.ph.i ], [ %13, %8 ]
  tail call void %15(ptr noundef nonnull %9) #12
  %16 = getelementptr inbounds nuw i8, ptr %.07.i, i64 8
  %17 = load ptr, ptr %16, align 8, !tbaa !21
  %.not.i = icmp eq ptr %17, null
  br i1 %.not.i, label %pmix_obj_run_constructors.exit, label %.lr.ph.i, !llvm.loop !22

pmix_obj_run_constructors.exit:                   ; preds = %.lr.ph.i, %8
  %18 = tail call ptr @prte_event_alloc() #12
  %19 = getelementptr inbounds nuw i8, ptr %0, i64 152
  store ptr %18, ptr %19, align 8, !tbaa !66
  %20 = getelementptr inbounds nuw i8, ptr %0, i64 160
  tail call void @llvm.memset.p0.i64(ptr noundef nonnull align 8 dereferenceable(16) %20, i8 0, i64 16, i1 false)
  ret void
}